; Function Attrs: nounwind uwtable
define zeroext range(i8 0, 2) i8 @l___private_Lake_Toml_Data_DateTime_0__Lake_Toml_decEqTime____x40_Lake_Toml_Data_DateTime___hyg_64_(ptr noundef readonly captures(none) %0, ptr noundef readonly captures(none) %1) local_unnamed_addr #0 {
  %3 = getelementptr inbounds nuw i8, ptr %0, i64 8
  %4 = load ptr, ptr %3, align 8, !tbaa !4
  %5 = getelementptr inbounds nuw i8, ptr %0, i64 16
  %6 = load ptr, ptr %5, align 8, !tbaa !4
  %7 = getelementptr inbounds nuw i8, ptr %0, i64 24
  %8 = load ptr, ptr %7, align 8, !tbaa !4
  %9 = getelementptr inbounds nuw i8, ptr %0, i64 32
  %10 = load ptr, ptr %9, align 8, !tbaa !4
  %11 = getelementptr inbounds nuw i8, ptr %0, i64 40
  %12 = load ptr, ptr %11, align 8, !tbaa !4
  %13 = getelementptr inbounds nuw i8, ptr %1, i64 8
  %14 = load ptr, ptr %13, align 8, !tbaa !4
  %15 = getelementptr inbounds nuw i8, ptr %1, i64 16
  %16 = load ptr, ptr %15, align 8, !tbaa !4
  %17 = getelementptr inbounds nuw i8, ptr %1, i64 24
  %18 = load ptr, ptr %17, align 8, !tbaa !4
  %19 = getelementptr inbounds nuw i8, ptr %1, i64 32
  %20 = load ptr, ptr %19, align 8, !tbaa !4
  %21 = getelementptr inbounds nuw i8, ptr %1, i64 40
  %22 = load ptr, ptr %21, align 8, !tbaa !4
  %23 = ptrtoint ptr %4 to i64
  %24 = and i64 %23, 1
  %25 = icmp ne i64 %24, 0
  %26 = ptrtoint ptr %14 to i64
  %27 = and i64 %26, 1
  %28 = icmp ne i64 %27, 0
  %or.cond = select i1 %25, i1 %28, i1 false
  br i1 %or.cond, label %29, label %lean_nat_eq.exit, !prof !8

29:                                               ; preds = %2
  %30 = icmp eq ptr %4, %14
  br i1 %30, label %32, label %73

lean_nat_eq.exit:                                 ; preds = %2
  %31 = tail call zeroext i1 @lean_nat_big_eq(ptr noundef %4, ptr noundef %14) #4
  br i1 %31, label %32, label %73

32:                                               ; preds = %29, %lean_nat_eq.exit
  %33 = ptrtoint ptr %6 to i64
  %34 = and i64 %33, 1
  %35 = icmp ne i64 %34, 0
  %36 = ptrtoint ptr %16 to i64
  %37 = and i64 %36, 1
  %38 = icmp ne i64 %37, 0
  %or.cond45 = select i1 %35, i1 %38, i1 false
  br i1 %or.cond45, label %39, label %lean_nat_eq.exit31, !prof !8

39:                                               ; preds = %32
  %40 = icmp eq ptr %6, %16
  br i1 %40, label %42, label %73

lean_nat_eq.exit31:                               ; preds = %32
  %41 = tail call zeroext i1 @lean_nat_big_eq(ptr noundef %6, ptr noundef %16) #4
  br i1 %41, label %42, label %73

42:                                               ; preds = %39, %lean_nat_eq.exit31
  %43 = ptrtoint ptr %8 to i64
  %44 = and i64 %43, 1
  %45 = icmp ne i64 %44, 0
  %46 = ptrtoint ptr %18 to i64
  %47 = and i64 %46, 1
  %48 = icmp ne i64 %47, 0
  %or.cond48 = select i1 %45, i1 %48, i1 false
  br i1 %or.cond48, label %49, label %lean_nat_eq.exit34, !prof !8

49:                                               ; preds = %42
  %50 = icmp eq ptr %8, %18
  br i1 %50, label %52, label %73

lean_nat_eq.exit34:                               ; preds = %42
  %51 = tail call zeroext i1 @lean_nat_big_eq(ptr noundef %8, ptr noundef %18) #4
  br i1 %51, label %52, label %73

52:                                               ; preds = %49, %lean_nat_eq.exit34
  %53 = ptrtoint ptr %10 to i64
  %54 = and i64 %53, 1
  %55 = icmp ne i64 %54, 0
  %56 = ptrtoint ptr %20 to i64
  %57 = and i64 %56, 1
  %58 = icmp ne i64 %57, 0
  %or.cond51 = select i1 %55, i1 %58, i1 false
  br i1 %or.cond51, label %59, label %lean_nat_eq.exit37, !prof !8

59:                                               ; preds = %52
  %60 = icmp eq ptr %10, %20
  br i1 %60, label %62, label %73

lean_nat_eq.exit37:                               ; preds = %52
  %61 = tail call zeroext i1 @lean_nat_big_eq(ptr noundef %10, ptr noundef %20) #4
  br i1 %61, label %62, label %73

62:                                               ; preds = %59, %lean_nat_eq.exit37
  %63 = ptrtoint ptr %12 to i64
  %64 = and i64 %63, 1
  %65 = icmp ne i64 %64, 0
  %66 = ptrtoint ptr %22 to i64
  %67 = and i64 %66, 1
  %68 = icmp ne i64 %67, 0
  %or.cond54 = select i1 %65, i1 %68, i1 false
  br i1 %or.cond54, label %69, label %.critedge.i38, !prof !8

69:                                               ; preds = %62
  %70 = icmp eq ptr %12, %22
  br label %lean_nat_eq.exit40

.critedge.i38:                                    ; preds = %62
  %71 = tail call zeroext i1 @lean_nat_big_eq(ptr noundef %12, ptr noundef %22) #4
  br label %lean_nat_eq.exit40

lean_nat_eq.exit40:                               ; preds = %69, %.critedge.i38
  %.0.i39 = phi i1 [ %70, %69 ], [ %71, %.critedge.i38 ]
  %72 = zext i1 %.0.i39 to i8
  br label %73

73:                                               ; preds = %59, %49, %39, %29, %lean_nat_eq.exit31, %lean_nat_eq.exit40, %lean_nat_eq.exit37, %lean_nat_eq.exit34, %lean_nat_eq.exit
  %.0 = phi i8 [ 0, %lean_nat_eq.exit ], [ 0, %lean_nat_eq.exit31 ], [ 0, %lean_nat_eq.exit34 ], [ %72, %lean_nat_eq.exit40 ], [ 0, %lean_nat_eq.exit37 ], [ 0, %29 ], [ 0, %39 ], [ 0, %49 ], [ 0, %59 ]
  ret i8 %.0
}